; Function Attrs: mustprogress nounwind uwtable
define hidden void @_ZN3smt5enode6del_ehER11ast_managerb(ptr nocapture noundef nonnull readonly align 8 dereferenceable(112) %this, ptr nocapture noundef nonnull readnone align 8 dereferenceable(976) %m, i1 noundef zeroext %update_children_parent) local_unnamed_addr #5 align 2 personality ptr @__gxx_personality_v0 {
entry:
  %m_suppress_args.i = getelementptr inbounds i8, ptr %this, i64 44
  %bf.load.i = load i16, ptr %m_suppress_args.i, align 4
  %0 = and i16 %bf.load.i, 8
  %tobool.not.i = icmp eq i16 %0, 0
  br i1 %tobool.not.i, label %_ZNK3smt5enode12get_num_argsEv.exit, label %for.end

_ZNK3smt5enode12get_num_argsEv.exit:              ; preds = %entry
  %1 = load ptr, ptr %this, align 8
  %m_num_args.i.i = getelementptr inbounds i8, ptr %1, i64 24
  %2 = load i32, ptr %m_num_args.i.i, align 8
  %cmp4.not = icmp eq i32 %2, 0
  br i1 %cmp4.not, label %for.end, label %for.body.lr.ph

for.body.lr.ph:                                   ; preds = %_ZNK3smt5enode12get_num_argsEv.exit
  %m_args.i = getelementptr inbounds i8, ptr %this, i64 112
  br i1 %update_children_parent, label %for.body.us.preheader, label %for.end

for.body.us.preheader:                            ; preds = %for.body.lr.ph
  %wide.trip.count = zext i32 %2 to i64
  br label %for.body.us

for.body.us:                                      ; preds = %for.body.us.preheader, %for.body.us
  %indvars.iv = phi i64 [ 0, %for.body.us.preheader ], [ %indvars.iv.next, %for.body.us ]
  %arrayidx.i.us = getelementptr inbounds [0 x ptr], ptr %m_args.i, i64 0, i64 %indvars.iv
  %3 = load ptr, ptr %arrayidx.i.us, align 8
  %m_root.i.us = getelementptr inbounds i8, ptr %3, i64 8
  %4 = load ptr, ptr %m_root.i.us, align 8
  %m_parents.us = getelementptr inbounds i8, ptr %4, i64 56
  %5 = load ptr, ptr %m_parents.us, align 8
  %arrayidx.i3.us = getelementptr inbounds i8, ptr %5, i64 -4
  %6 = load i32, ptr %arrayidx.i3.us, align 4
  %dec.i.us = add i32 %6, -1
  store i32 %dec.i.us, ptr %arrayidx.i3.us, align 4
  %indvars.iv.next = add nuw nsw i64 %indvars.iv, 1
  %exitcond.not = icmp eq i64 %indvars.iv.next, %wide.trip.count
  br i1 %exitcond.not, label %for.end, label %for.body.us, !llvm.loop !6

for.end:                                          ; preds = %for.body.us, %entry, %for.body.lr.ph, %_ZNK3smt5enode12get_num_argsEv.exit
  %m_parents.i = getelementptr inbounds i8, ptr %this, i64 56
  %7 = load ptr, ptr %m_parents.i, align 8
  %tobool.not.i.i.i.i = icmp eq ptr %7, null
  br i1 %tobool.not.i.i.i.i, label %_ZN3smt5enodeD2Ev.exit, label %if.then.i.i.i.i

if.then.i.i.i.i:                                  ; preds = %for.end
  %add.ptr.i.i.i.i.i = getelementptr inbounds i8, ptr %7, i64 -8
  invoke void @_ZN6memory10deallocateEPv(ptr noundef nonnull %add.ptr.i.i.i.i.i)
          to label %_ZN3smt5enodeD2Ev.exit unwind label %terminate.lpad.i.i.i

terminate.lpad.i.i.i:                             ; preds = %if.then.i.i.i.i
  %8 = landingpad { ptr, i32 }
          catch ptr null
  %9 = extractvalue { ptr, i32 } %8, 0
  tail call void @__clang_call_terminate(ptr %9) #18
  unreachable

_ZN3smt5enodeD2Ev.exit:                           ; preds = %for.end, %if.then.i.i.i.i
  ret void
}